target datalayout = "e-m:e-p270:32:32-p271:32:32-p272:64:64-i64:64-i128:128-f80:128-n8:16:32:64-S128"
target triple = "x86_64-pc-linux-gnu"

%"class.zxing::qrcode::FormatInformation" = type { %"class.zxing::Counted.base", ptr, i8, float }
%"class.zxing::Counted.base" = type <{ ptr, i32 }>
%"class.zxing::Counted" = type <{ ptr, i32, [4 x i8] }>

@_ZTVN5zxing6qrcode17FormatInformationE = linkonce_odr hidden unnamed_addr constant { [4 x ptr] } { [4 x ptr] [ptr null, ptr @_ZTIN5zxing6qrcode17FormatInformationE, ptr @_ZN5zxing7CountedD2Ev, ptr @_ZN5zxing6qrcode17FormatInformationD0Ev] }, comdat, align 8
@_ZTVN5zxing7CountedE = linkonce_odr hidden unnamed_addr constant { [4 x ptr] } { [4 x ptr] [ptr null, ptr @_ZTIN5zxing7CountedE, ptr @_ZN5zxing7CountedD2Ev, ptr @_ZN5zxing7CountedD0Ev] }, comdat, align 8

; Function Attrs: mustprogress nounwind uwtable
define linkonce_odr hidden void @_ZN5zxing7CountedD2Ev(ptr noundef nonnull align 8 dereferenceable(12) %0) unnamed_addr #1 comdat align 2 {
  %2 = alloca ptr, align 8
  store ptr %0, ptr %2, align 8, !tbaa !22
  ret void
}

; Function Attrs: mustprogress nounwind uwtable
define linkonce_odr hidden void @_ZN5zxing7CountedC2Ev(ptr noundef nonnull align 8 dereferenceable(12) %0) unnamed_addr #1 comdat align 2 {
  %2 = alloca ptr, align 8
  store ptr %0, ptr %2, align 8, !tbaa !22
  %3 = load ptr, ptr %2, align 8
  store ptr getelementptr inbounds inrange(-16, 16) ({ [4 x ptr] }, ptr @_ZTVN5zxing7CountedE, i32 0, i32 0, i32 2), ptr %3, align 8, !tbaa !14
  %4 = getelementptr inbounds nuw %"class.zxing::Counted", ptr %3, i32 0, i32 1
  store i32 0, ptr %4, align 8, !tbaa !24
  ret void
}

; Function Attrs: mustprogress uwtable
define hidden void @_ZN5zxing6qrcode17FormatInformationC2EifRNS_12ErrorHandlerE(ptr noundef nonnull align 8 dereferenceable(32) %0, i32 noundef %1, float noundef %2, ptr noundef nonnull align 8 dereferenceable(48) %3) unnamed_addr #0 align 2 personality ptr @__gxx_personality_v0 {
  %5 = alloca ptr, align 8
  %6 = alloca i32, align 4
  %7 = alloca float, align 4
  %8 = alloca ptr, align 8
  %9 = alloca ptr, align 8
  %10 = alloca i32, align 4
  store ptr %0, ptr %5, align 8, !tbaa !3
  store i32 %1, ptr %6, align 4, !tbaa !8
  store float %2, ptr %7, align 4, !tbaa !10
  store ptr %3, ptr %8, align 8, !tbaa !12
  %11 = load ptr, ptr %5, align 8
  call void @_ZN5zxing7CountedC2Ev(ptr noundef nonnull align 8 dereferenceable(12) %11)
  store ptr getelementptr inbounds inrange(-16, 16) ({ [4 x ptr] }, ptr @_ZTVN5zxing6qrcode17FormatInformationE, i32 0, i32 0, i32 2), ptr %11, align 8, !tbaa !14
  %12 = getelementptr inbounds nuw %"class.zxing::qrcode::FormatInformation", ptr %11, i32 0, i32 1
  %13 = load i32, ptr %6, align 4, !tbaa !8
  %14 = ashr i32 %13, 3
  %15 = and i32 %14, 3
  %16 = load ptr, ptr %8, align 8, !tbaa !12
  %17 = invoke noundef nonnull align 8 dereferenceable(40) ptr @_ZN5zxing6qrcode20ErrorCorrectionLevel7forBitsEiRNS_12ErrorHandlerE(i32 noundef %15, ptr noundef nonnull align 8 dereferenceable(48) %16)
          to label %18 unwind label %33

18:                                               ; preds = %4
  store ptr %17, ptr %12, align 8, !tbaa !16
  %19 = getelementptr inbounds nuw %"class.zxing::qrcode::FormatInformation", ptr %11, i32 0, i32 2
  %20 = load i32, ptr %6, align 4, !tbaa !8
  %21 = and i32 %20, 7
  %22 = trunc i32 %21 to i8
  store i8 %22, ptr %19, align 8, !tbaa !18
  %23 = load float, ptr %7, align 4, !tbaa !10
  %24 = getelementptr inbounds nuw %"class.zxing::qrcode::FormatInformation", ptr %11, i32 0, i32 3
  store float %23, ptr %24, align 4, !tbaa !21
  %25 = load ptr, ptr %8, align 8, !tbaa !12
  %26 = load ptr, ptr %25, align 8, !tbaa !14
  %27 = getelementptr inbounds ptr, ptr %26, i64 2
  %28 = load ptr, ptr %27, align 8
  %29 = invoke noundef i32 %28(ptr noundef nonnull align 8 dereferenceable(48) %25)
          to label %30 unwind label %33

30:                                               ; preds = %18
  %31 = icmp ne i32 %29, 0
  br i1 %31, label %32, label %37

32:                                               ; preds = %30
  br label %37

33:                                               ; preds = %18, %4
  %34 = landingpad { ptr, i32 }
          cleanup
  %35 = extractvalue { ptr, i32 } %34, 0
  store ptr %35, ptr %9, align 8
  %36 = extractvalue { ptr, i32 } %34, 1
  store i32 %36, ptr %10, align 4
  call void @_ZN5zxing7CountedD2Ev(ptr noundef nonnull align 8 dereferenceable(12) %11) #8
  br label %38

37:                                               ; preds = %32, %30
  ret void

38:                                               ; preds = %33
  %39 = load ptr, ptr %9, align 8
  %40 = load i32, ptr %10, align 4
  %41 = insertvalue { ptr, i32 } poison, ptr %39, 0
  %42 = insertvalue { ptr, i32 } %41, i32 %40, 1
  resume { ptr, i32 } %42
}