; Function Attrs: mustprogress uwtable
define hidden void @_ZN5zxing6qrcode17FormatInformationC2EifRNS_12ErrorHandlerE(ptr noundef nonnull writeonly align 8 captures(none) dereferenceable(32) initializes((0, 12), (16, 25), (28, 32)) %0, i32 noundef %1, float noundef %2, ptr noundef nonnull align 8 dereferenceable(48) %3) unnamed_addr #0 align 2 personality ptr @__gxx_personality_v0 {
  %5 = getelementptr inbounds nuw i8, ptr %0, i64 8
  store i32 0, ptr %5, align 8, !tbaa !3
  store ptr getelementptr inbounds nuw inrange(-16, 16) (i8, ptr @_ZTVN5zxing6qrcode17FormatInformationE, i64 16), ptr %0, align 8, !tbaa !8
  %6 = lshr i32 %1, 3
  %7 = and i32 %6, 3
  %8 = tail call noundef nonnull align 8 dereferenceable(40) ptr @_ZN5zxing6qrcode20ErrorCorrectionLevel7forBitsEiRNS_12ErrorHandlerE(i32 noundef %7, ptr noundef nonnull align 8 dereferenceable(48) %3)
  %9 = getelementptr inbounds nuw i8, ptr %0, i64 16
  store ptr %8, ptr %9, align 8, !tbaa !10
  %10 = getelementptr inbounds nuw i8, ptr %0, i64 24
  %11 = trunc i32 %1 to i8
  %12 = and i8 %11, 7
  store i8 %12, ptr %10, align 8, !tbaa !13
  %13 = getelementptr inbounds nuw i8, ptr %0, i64 28
  store float %2, ptr %13, align 4, !tbaa !16
  %14 = load ptr, ptr %3, align 8, !tbaa !8
  %15 = getelementptr inbounds nuw i8, ptr %14, i64 16
  %16 = load ptr, ptr %15, align 8
  %17 = tail call noundef i32 %16(ptr noundef nonnull align 8 dereferenceable(48) %3)
  ret void
}